; Function Attrs: nounwind uwtable
define noundef ptr @Abc_NtkCreateNodeBuf(ptr noundef %0, ptr noundef %1) local_unnamed_addr #0 {
  %3 = tail call noundef ptr @Abc_NtkCreateObj(ptr noundef %0, i32 noundef 7)
  %.not = icmp eq ptr %1, null
  br i1 %.not, label %5, label %4

4:                                                ; preds = %2
  tail call void @Abc_ObjAddFanin(ptr noundef %3, ptr noundef nonnull %1) #10
  br label %5

5:                                                ; preds = %4, %2
  %6 = getelementptr i8, ptr %0, i64 4
  %.val21 = load i32, ptr %6, align 4, !tbaa !51
  switch i32 %.val21, label %26 [
    i32 1, label %7
    i32 2, label %12
    i32 3, label %17
    i32 4, label %22
  ]

7:                                                ; preds = %5
  %8 = getelementptr inbounds nuw i8, ptr %0, i64 256
  %9 = load ptr, ptr %8, align 8, !tbaa !52
  %10 = tail call ptr @Abc_SopRegister(ptr noundef %9, ptr noundef nonnull @.str.7) #10
  %11 = getelementptr inbounds nuw i8, ptr %3, i64 56
  store ptr %10, ptr %11, align 8, !tbaa !43
  br label %26

12:                                               ; preds = %5
  %13 = getelementptr inbounds nuw i8, ptr %0, i64 256
  %14 = load ptr, ptr %13, align 8, !tbaa !52
  %15 = tail call ptr @Cudd_bddIthVar(ptr noundef %14, i32 noundef 0) #10
  %16 = getelementptr inbounds nuw i8, ptr %3, i64 56
  store ptr %15, ptr %16, align 8, !tbaa !43
  tail call void @Cudd_Ref(ptr noundef %15) #10
  br label %26

17:                                               ; preds = %5
  %18 = getelementptr inbounds nuw i8, ptr %0, i64 256
  %19 = load ptr, ptr %18, align 8, !tbaa !52
  %20 = tail call ptr @Hop_IthVar(ptr noundef %19, i32 noundef 0) #10
  %21 = getelementptr inbounds nuw i8, ptr %3, i64 56
  store ptr %20, ptr %21, align 8, !tbaa !43
  br label %26

22:                                               ; preds = %5
  %23 = tail call ptr (...) @Abc_FrameReadLibGen() #10
  %24 = tail call ptr @Mio_LibraryReadBuf(ptr noundef %23) #10
  %25 = getelementptr inbounds nuw i8, ptr %3, i64 56
  store ptr %24, ptr %25, align 8, !tbaa !43
  br label %26

26:                                               ; preds = %5, %12, %22, %17, %7
  ret ptr %3
}